target datalayout = "e-m:e-p270:32:32-p271:32:32-p272:64:64-i64:64-i128:128-f80:128-n8:16:32:64-S128"
target triple = "x86_64-pc-linux-gnu"

%struct._build_dict = type { ptr, ptr, ptr, ptr }
%struct._diam_avp_t = type { i32, ptr, ptr, i32, i32, ptr }
%struct._proto_avp_t = type { ptr, ptr, i32 }

@build_dict = internal global %struct._build_dict zeroinitializer, align 8

; Function Attrs: null_pointer_is_valid sspstrong uwtable
define internal ptr @build_proto_avp(ptr noundef %0, i32 noundef %1, ptr noundef %2, ptr noundef %3, ptr noundef %4, ptr noundef %5) #0 {
  %7 = alloca ptr, align 8
  %8 = alloca i32, align 4
  %9 = alloca ptr, align 8
  %10 = alloca ptr, align 8
  %11 = alloca ptr, align 8
  %12 = alloca ptr, align 8
  %13 = alloca ptr, align 8
  %14 = alloca ptr, align 8
  %15 = alloca ptr, align 8
  store ptr %0, ptr %7, align 8
  store i32 %1, ptr %8, align 4
  store ptr %2, ptr %9, align 8
  store ptr %3, ptr %10, align 8
  store ptr %4, ptr %11, align 8
  store ptr %5, ptr %12, align 8
  call void @llvm.lifetime.start.p0(i64 8, ptr %13) #14
  %16 = call ptr @wmem_epan_scope()
  %17 = call noalias ptr @wmem_alloc0(ptr noundef %16, i64 noundef 40) #15
  store ptr %17, ptr %13, align 8
  call void @llvm.lifetime.start.p0(i64 8, ptr %14) #14
  %18 = call ptr @wmem_epan_scope()
  %19 = call noalias ptr @wmem_alloc0(ptr noundef %18, i64 noundef 24) #15
  store ptr %19, ptr %14, align 8
  call void @llvm.lifetime.start.p0(i64 8, ptr %15) #14
  %20 = load ptr, ptr %13, align 8
  %21 = getelementptr inbounds nuw %struct._diam_avp_t, ptr %20, i32 0, i32 3
  store ptr %21, ptr %15, align 8
  %22 = load i32, ptr %8, align 4
  %23 = load ptr, ptr %13, align 8
  %24 = getelementptr inbounds nuw %struct._diam_avp_t, ptr %23, i32 0, i32 0
  store i32 %22, ptr %24, align 8
  %25 = load ptr, ptr %9, align 8
  %26 = load ptr, ptr %13, align 8
  %27 = getelementptr inbounds nuw %struct._diam_avp_t, ptr %26, i32 0, i32 1
  store ptr %25, ptr %27, align 8
  %28 = load ptr, ptr %13, align 8
  %29 = getelementptr inbounds nuw %struct._diam_avp_t, ptr %28, i32 0, i32 2
  store ptr @proto_avp, ptr %29, align 8
  %30 = load ptr, ptr %13, align 8
  %31 = getelementptr inbounds nuw %struct._diam_avp_t, ptr %30, i32 0, i32 3
  store i32 -1, ptr %31, align 8
  %32 = load ptr, ptr %13, align 8
  %33 = getelementptr inbounds nuw %struct._diam_avp_t, ptr %32, i32 0, i32 4
  store i32 -2, ptr %33, align 4
  %34 = load ptr, ptr %14, align 8
  %35 = load ptr, ptr %13, align 8
  %36 = getelementptr inbounds nuw %struct._diam_avp_t, ptr %35, i32 0, i32 5
  store ptr %34, ptr %36, align 8
  %37 = load ptr, ptr %12, align 8
  %38 = load ptr, ptr %14, align 8
  %39 = getelementptr inbounds nuw %struct._proto_avp_t, ptr %38, i32 0, i32 0
  store ptr %37, ptr %39, align 8
  %40 = load ptr, ptr %14, align 8
  %41 = getelementptr inbounds nuw %struct._proto_avp_t, ptr %40, i32 0, i32 1
  store ptr null, ptr %41, align 8
  %42 = load ptr, ptr %14, align 8
  %43 = getelementptr inbounds nuw %struct._proto_avp_t, ptr %42, i32 0, i32 2
  store i32 0, ptr %43, align 8
  %44 = load ptr, ptr getelementptr inbounds nuw (%struct._build_dict, ptr @build_dict, i32 0, i32 1), align 8
  %45 = load ptr, ptr %15, align 8
  call void @g_ptr_array_add(ptr noundef %44, ptr noundef %45)
  %46 = load ptr, ptr %13, align 8
  call void @llvm.lifetime.end.p0(i64 8, ptr %15) #14
  call void @llvm.lifetime.end.p0(i64 8, ptr %14) #14
  call void @llvm.lifetime.end.p0(i64 8, ptr %13) #14
  ret ptr %46
}