; Function Attrs: null_pointer_is_valid sspstrong uwtable
define internal noundef ptr @build_proto_avp(ptr readnone captures(none) %0, i32 noundef %1, ptr noundef %2, ptr readnone captures(none) %3, ptr readnone captures(none) %4, ptr noundef %5) #0 {
  %7 = tail call ptr @wmem_epan_scope()
  %8 = tail call noalias dereferenceable_or_null(40) ptr @wmem_alloc0(ptr noundef %7, i64 noundef 40) #15
  %9 = tail call ptr @wmem_epan_scope()
  %10 = tail call noalias dereferenceable_or_null(24) ptr @wmem_alloc0(ptr noundef %9, i64 noundef 24) #15
  %11 = getelementptr inbounds nuw i8, ptr %8, i64 24
  store i32 %1, ptr %8, align 8
  %12 = getelementptr inbounds nuw i8, ptr %8, i64 8
  store ptr %2, ptr %12, align 8
  %13 = getelementptr inbounds nuw i8, ptr %8, i64 16
  store ptr @proto_avp, ptr %13, align 8
  store i32 -1, ptr %11, align 8
  %14 = getelementptr inbounds nuw i8, ptr %8, i64 28
  store i32 -2, ptr %14, align 4
  %15 = getelementptr inbounds nuw i8, ptr %8, i64 32
  store ptr %10, ptr %15, align 8
  store ptr %5, ptr %10, align 8
  %16 = getelementptr inbounds nuw i8, ptr %10, i64 8
  store ptr null, ptr %16, align 8
  %17 = getelementptr inbounds nuw i8, ptr %10, i64 16
  store i32 0, ptr %17, align 8
  %18 = load ptr, ptr @build_dict.1, align 8
  tail call void @g_ptr_array_add(ptr noundef %18, ptr noundef nonnull %11)
  ret ptr %8
}